
stage2.elf:     file format elf32-avr

Sections:
Idx Name          Size      VMA       LMA       File off  Algn
  0 .data         00000052  00800100  0000040c  000004a0  2**0
                  CONTENTS, ALLOC, LOAD, DATA
  1 .text         0000040c  00000000  00000000  00000094  2**1
                  CONTENTS, ALLOC, LOAD, READONLY, CODE
  2 .bss          00000001  00800152  00800152  000004f2  2**0
                  ALLOC
  3 .comment      00000030  00000000  00000000  000004f2  2**0
                  CONTENTS, READONLY
  4 .debug_aranges 00000078  00000000  00000000  00000522  2**0
                  CONTENTS, READONLY, DEBUGGING
  5 .debug_info   000008ea  00000000  00000000  0000059a  2**0
                  CONTENTS, READONLY, DEBUGGING
  6 .debug_abbrev 000003f0  00000000  00000000  00000e84  2**0
                  CONTENTS, READONLY, DEBUGGING
  7 .debug_line   00000551  00000000  00000000  00001274  2**0
                  CONTENTS, READONLY, DEBUGGING
  8 .debug_frame  00000130  00000000  00000000  000017c8  2**2
                  CONTENTS, READONLY, DEBUGGING
  9 .debug_str    00000395  00000000  00000000  000018f8  2**0
                  CONTENTS, READONLY, DEBUGGING
 10 .debug_loc    000008da  00000000  00000000  00001c8d  2**0
                  CONTENTS, READONLY, DEBUGGING
 11 .debug_ranges 00000058  00000000  00000000  00002567  2**0
                  CONTENTS, READONLY, DEBUGGING

Disassembly of section .text:

00000000 <__vectors>:
   0:	45 c0       	rjmp	.+138    	; 0x8c <__ctors_end>
   2:	00 00       	nop
   4:	60 c0       	rjmp	.+192    	; 0xc6 <__bad_interrupt>
   6:	00 00       	nop
   8:	5e c0       	rjmp	.+188    	; 0xc6 <__bad_interrupt>
   a:	00 00       	nop
   c:	5c c0       	rjmp	.+184    	; 0xc6 <__bad_interrupt>
   e:	00 00       	nop
  10:	5a c0       	rjmp	.+180    	; 0xc6 <__bad_interrupt>
  12:	00 00       	nop
  14:	58 c0       	rjmp	.+176    	; 0xc6 <__bad_interrupt>
  16:	00 00       	nop
  18:	56 c0       	rjmp	.+172    	; 0xc6 <__bad_interrupt>
  1a:	00 00       	nop
  1c:	54 c0       	rjmp	.+168    	; 0xc6 <__bad_interrupt>
  1e:	00 00       	nop
  20:	52 c0       	rjmp	.+164    	; 0xc6 <__bad_interrupt>
  22:	00 00       	nop
  24:	50 c0       	rjmp	.+160    	; 0xc6 <__bad_interrupt>
  26:	00 00       	nop
  28:	4e c0       	rjmp	.+156    	; 0xc6 <__bad_interrupt>
  2a:	00 00       	nop
  2c:	4c c0       	rjmp	.+152    	; 0xc6 <__bad_interrupt>
  2e:	00 00       	nop
  30:	4a c0       	rjmp	.+148    	; 0xc6 <__bad_interrupt>
  32:	00 00       	nop
  34:	48 c0       	rjmp	.+144    	; 0xc6 <__bad_interrupt>
  36:	00 00       	nop
  38:	1b c1       	rjmp	.+566    	; 0x270 <__vector_14>
  3a:	00 00       	nop
  3c:	44 c0       	rjmp	.+136    	; 0xc6 <__bad_interrupt>
  3e:	00 00       	nop
  40:	42 c0       	rjmp	.+132    	; 0xc6 <__bad_interrupt>
  42:	00 00       	nop
  44:	40 c0       	rjmp	.+128    	; 0xc6 <__bad_interrupt>
  46:	00 00       	nop
  48:	3e c0       	rjmp	.+124    	; 0xc6 <__bad_interrupt>
  4a:	00 00       	nop
  4c:	3c c0       	rjmp	.+120    	; 0xc6 <__bad_interrupt>
  4e:	00 00       	nop
  50:	3a c0       	rjmp	.+116    	; 0xc6 <__bad_interrupt>
  52:	00 00       	nop
  54:	38 c0       	rjmp	.+112    	; 0xc6 <__bad_interrupt>
  56:	00 00       	nop
  58:	36 c0       	rjmp	.+108    	; 0xc6 <__bad_interrupt>
  5a:	00 00       	nop
  5c:	34 c0       	rjmp	.+104    	; 0xc6 <__bad_interrupt>
  5e:	00 00       	nop
  60:	32 c0       	rjmp	.+100    	; 0xc6 <__bad_interrupt>
  62:	00 00       	nop
  64:	30 c0       	rjmp	.+96     	; 0xc6 <__bad_interrupt>
  66:	00 00       	nop
  68:	2e c0       	rjmp	.+92     	; 0xc6 <__bad_interrupt>
  6a:	00 00       	nop
  6c:	2c c0       	rjmp	.+88     	; 0xc6 <__bad_interrupt>
  6e:	00 00       	nop
  70:	2a c0       	rjmp	.+84     	; 0xc6 <__bad_interrupt>
  72:	00 00       	nop
  74:	28 c0       	rjmp	.+80     	; 0xc6 <__bad_interrupt>
  76:	00 00       	nop
  78:	26 c0       	rjmp	.+76     	; 0xc6 <__bad_interrupt>
  7a:	00 00       	nop
  7c:	24 c0       	rjmp	.+72     	; 0xc6 <__bad_interrupt>
  7e:	00 00       	nop
  80:	22 c0       	rjmp	.+68     	; 0xc6 <__bad_interrupt>
  82:	00 00       	nop
  84:	20 c0       	rjmp	.+64     	; 0xc6 <__bad_interrupt>
  86:	00 00       	nop
  88:	1e c0       	rjmp	.+60     	; 0xc6 <__bad_interrupt>
	...

0000008c <__ctors_end>:
  8c:	11 24       	eor	r1, r1
  8e:	1f be       	out	0x3f, r1	; 63
  90:	cf ef       	ldi	r28, 0xFF	; 255
  92:	d0 e1       	ldi	r29, 0x10	; 16
  94:	de bf       	out	0x3e, r29	; 62
  96:	cd bf       	out	0x3d, r28	; 61

00000098 <__do_copy_data>:
  98:	11 e0       	ldi	r17, 0x01	; 1
  9a:	a0 e0       	ldi	r26, 0x00	; 0
  9c:	b1 e0       	ldi	r27, 0x01	; 1
  9e:	ec e0       	ldi	r30, 0x0C	; 12
  a0:	f4 e0       	ldi	r31, 0x04	; 4
  a2:	00 e0       	ldi	r16, 0x00	; 0
  a4:	0b bf       	out	0x3b, r16	; 59
  a6:	02 c0       	rjmp	.+4      	; 0xac <__do_copy_data+0x14>
  a8:	07 90       	elpm	r0, Z+
  aa:	0d 92       	st	X+, r0
  ac:	a2 35       	cpi	r26, 0x52	; 82
  ae:	b1 07       	cpc	r27, r17
  b0:	d9 f7       	brne	.-10     	; 0xa8 <__do_copy_data+0x10>

000000b2 <__do_clear_bss>:
  b2:	21 e0       	ldi	r18, 0x01	; 1
  b4:	a2 e5       	ldi	r26, 0x52	; 82
  b6:	b1 e0       	ldi	r27, 0x01	; 1
  b8:	01 c0       	rjmp	.+2      	; 0xbc <.do_clear_bss_start>

000000ba <.do_clear_bss_loop>:
  ba:	1d 92       	st	X+, r1

000000bc <.do_clear_bss_start>:
  bc:	a3 35       	cpi	r26, 0x53	; 83
  be:	b2 07       	cpc	r27, r18
  c0:	e1 f7       	brne	.-8      	; 0xba <.do_clear_bss_loop>
  c2:	7b d1       	rcall	.+758    	; 0x3ba <main>
  c4:	a1 c1       	rjmp	.+834    	; 0x408 <_exit>

000000c6 <__bad_interrupt>:
  c6:	9c cf       	rjmp	.-200    	; 0x0 <__vectors>

000000c8 <_Z14PWM_AddChannelh>:
	}
	pwmDutyTab[(u8)s] = newDuty;
	asm("sei\n");
	PWM_AddChannel((u8)s);
	return 0;
}
  c8:	90 91 08 01 	lds	r25, 0x0108
  cc:	99 23       	and	r25, r25
  ce:	31 f1       	breq	.+76     	; 0x11c <_Z14PWM_AddChannelh+0x54>
  d0:	e8 2f       	mov	r30, r24
  d2:	f0 e0       	ldi	r31, 0x00	; 0
  d4:	ee 0f       	add	r30, r30
  d6:	ff 1f       	adc	r31, r31
  d8:	e6 5f       	subi	r30, 0xF6	; 246
  da:	fe 4f       	sbci	r31, 0xFE	; 254
  dc:	40 81       	ld	r20, Z
  de:	51 81       	ldd	r21, Z+1	; 0x01
  e0:	e0 91 00 01 	lds	r30, 0x0100
  e4:	f0 e0       	ldi	r31, 0x00	; 0
  e6:	ee 0f       	add	r30, r30
  e8:	ff 1f       	adc	r31, r31
  ea:	e6 5f       	subi	r30, 0xF6	; 246
  ec:	fe 4f       	sbci	r31, 0xFE	; 254
  ee:	20 81       	ld	r18, Z
  f0:	31 81       	ldd	r19, Z+1	; 0x01
  f2:	24 17       	cp	r18, r20
  f4:	35 07       	cpc	r19, r21
  f6:	a0 f4       	brcc	.+40     	; 0x120 <_Z14PWM_AddChannelh+0x58>
  f8:	e1 e0       	ldi	r30, 0x01	; 1
  fa:	f1 e0       	ldi	r31, 0x01	; 1
  fc:	60 e0       	ldi	r22, 0x00	; 0
  fe:	6f 5f       	subi	r22, 0xFF	; 255
 100:	69 17       	cp	r22, r25
 102:	79 f0       	breq	.+30     	; 0x122 <_Z14PWM_AddChannelh+0x5a>
 104:	a1 91       	ld	r26, Z+
 106:	b0 e0       	ldi	r27, 0x00	; 0
 108:	aa 0f       	add	r26, r26
 10a:	bb 1f       	adc	r27, r27
 10c:	a6 5f       	subi	r26, 0xF6	; 246
 10e:	be 4f       	sbci	r27, 0xFE	; 254
 110:	2d 91       	ld	r18, X+
 112:	3c 91       	ld	r19, X
 114:	24 17       	cp	r18, r20
 116:	35 07       	cpc	r19, r21
 118:	90 f3       	brcs	.-28     	; 0xfe <_Z14PWM_AddChannelh+0x36>
 11a:	03 c0       	rjmp	.+6      	; 0x122 <_Z14PWM_AddChannelh+0x5a>
 11c:	69 2f       	mov	r22, r25
 11e:	01 c0       	rjmp	.+2      	; 0x122 <_Z14PWM_AddChannelh+0x5a>
 120:	60 e0       	ldi	r22, 0x00	; 0
 122:	f8 94       	cli
 124:	69 17       	cp	r22, r25
 126:	68 f4       	brcc	.+26     	; 0x142 <_Z14PWM_AddChannelh+0x7a>
 128:	29 2f       	mov	r18, r25
 12a:	e2 2f       	mov	r30, r18
 12c:	f0 e0       	ldi	r31, 0x00	; 0
 12e:	e0 50       	subi	r30, 0x00	; 0
 130:	ff 4f       	sbci	r31, 0xFF	; 255
 132:	df 01       	movw	r26, r30
 134:	11 97       	sbiw	r26, 0x01	; 1
 136:	3c 91       	ld	r19, X
 138:	30 83       	st	Z, r19
 13a:	21 50       	subi	r18, 0x01	; 1
 13c:	26 13       	cpse	r18, r22
 13e:	f5 cf       	rjmp	.-22     	; 0x12a <_Z14PWM_AddChannelh+0x62>
 140:	01 c0       	rjmp	.+2      	; 0x144 <_Z14PWM_AddChannelh+0x7c>
 142:	69 2f       	mov	r22, r25
 144:	e6 2f       	mov	r30, r22
 146:	f0 e0       	ldi	r31, 0x00	; 0
 148:	e0 50       	subi	r30, 0x00	; 0
 14a:	ff 4f       	sbci	r31, 0xFF	; 255
 14c:	80 83       	st	Z, r24
 14e:	78 94       	sei
 150:	9f 5f       	subi	r25, 0xFF	; 255
 152:	90 93 08 01 	sts	0x0108, r25
 156:	08 95       	ret

00000158 <_Z17PWM_DeleteChannelh>:
 158:	90 91 52 01 	lds	r25, 0x0152
 15c:	99 23       	and	r25, r25
 15e:	e1 f3       	breq	.-8      	; 0x158 <_Z17PWM_DeleteChannelh>
 160:	f8 94       	cli
 162:	30 91 08 01 	lds	r19, 0x0108
 166:	33 23       	and	r19, r19
 168:	09 f1       	breq	.+66     	; 0x1ac <_Z17PWM_DeleteChannelh+0x54>
 16a:	90 91 00 01 	lds	r25, 0x0100
 16e:	98 13       	cpse	r25, r24
 170:	17 c0       	rjmp	.+46     	; 0x1a0 <_Z17PWM_DeleteChannelh+0x48>
 172:	04 c0       	rjmp	.+8      	; 0x17c <_Z17PWM_DeleteChannelh+0x24>
 174:	21 91       	ld	r18, Z+
 176:	28 13       	cpse	r18, r24
 178:	16 c0       	rjmp	.+44     	; 0x1a6 <_Z17PWM_DeleteChannelh+0x4e>
 17a:	01 c0       	rjmp	.+2      	; 0x17e <_Z17PWM_DeleteChannelh+0x26>
 17c:	90 e0       	ldi	r25, 0x00	; 0
 17e:	9f 5f       	subi	r25, 0xFF	; 255
 180:	93 17       	cp	r25, r19
 182:	50 f4       	brcc	.+20     	; 0x198 <_Z17PWM_DeleteChannelh+0x40>
 184:	e9 2f       	mov	r30, r25
 186:	f0 e0       	ldi	r31, 0x00	; 0
 188:	e0 50       	subi	r30, 0x00	; 0
 18a:	ff 4f       	sbci	r31, 0xFF	; 255
 18c:	80 81       	ld	r24, Z
 18e:	31 97       	sbiw	r30, 0x01	; 1
 190:	80 83       	st	Z, r24
 192:	9f 5f       	subi	r25, 0xFF	; 255
 194:	93 13       	cpse	r25, r19
 196:	f6 cf       	rjmp	.-20     	; 0x184 <_Z17PWM_DeleteChannelh+0x2c>
 198:	31 50       	subi	r19, 0x01	; 1
 19a:	30 93 08 01 	sts	0x0108, r19
 19e:	06 c0       	rjmp	.+12     	; 0x1ac <_Z17PWM_DeleteChannelh+0x54>
 1a0:	e1 e0       	ldi	r30, 0x01	; 1
 1a2:	f1 e0       	ldi	r31, 0x01	; 1
 1a4:	90 e0       	ldi	r25, 0x00	; 0
 1a6:	9f 5f       	subi	r25, 0xFF	; 255
 1a8:	93 13       	cpse	r25, r19
 1aa:	e4 cf       	rjmp	.-56     	; 0x174 <_Z17PWM_DeleteChannelh+0x1c>
 1ac:	78 94       	sei
 1ae:	08 95       	ret

000001b0 <_Z6PinOuthh>:

void PinOut(u8 channel, u8 out){
	if(out){
 1b0:	66 23       	and	r22, r22
 1b2:	c1 f0       	breq	.+48     	; 0x1e4 <_Z6PinOuthh+0x34>
		*pinTab[channel].PORT |= 1 << pinTab[channel].p;
 1b4:	97 e0       	ldi	r25, 0x07	; 7
 1b6:	89 9f       	mul	r24, r25
 1b8:	d0 01       	movw	r26, r0
 1ba:	11 24       	eor	r1, r1
 1bc:	a6 5e       	subi	r26, 0xE6	; 230
 1be:	be 4f       	sbci	r27, 0xFE	; 254
 1c0:	12 96       	adiw	r26, 0x02	; 2
 1c2:	ed 91       	ld	r30, X+
 1c4:	fc 91       	ld	r31, X
 1c6:	13 97       	sbiw	r26, 0x03	; 3
 1c8:	40 81       	ld	r20, Z
 1ca:	21 e0       	ldi	r18, 0x01	; 1
 1cc:	30 e0       	ldi	r19, 0x00	; 0
 1ce:	c9 01       	movw	r24, r18
 1d0:	16 96       	adiw	r26, 0x06	; 6
 1d2:	0c 90       	ld	r0, X
 1d4:	02 c0       	rjmp	.+4      	; 0x1da <_Z6PinOuthh+0x2a>
 1d6:	88 0f       	add	r24, r24
 1d8:	99 1f       	adc	r25, r25
 1da:	0a 94       	dec	r0
 1dc:	e2 f7       	brpl	.-8      	; 0x1d6 <_Z6PinOuthh+0x26>
 1de:	84 2b       	or	r24, r20
 1e0:	80 83       	st	Z, r24
 1e2:	08 95       	ret
	}else{
		*pinTab[channel].PORT &= ~(1 << pinTab[channel].p);
 1e4:	97 e0       	ldi	r25, 0x07	; 7
 1e6:	89 9f       	mul	r24, r25
 1e8:	d0 01       	movw	r26, r0
 1ea:	11 24       	eor	r1, r1
 1ec:	a6 5e       	subi	r26, 0xE6	; 230
 1ee:	be 4f       	sbci	r27, 0xFE	; 254
 1f0:	12 96       	adiw	r26, 0x02	; 2
 1f2:	ed 91       	ld	r30, X+
 1f4:	fc 91       	ld	r31, X
 1f6:	13 97       	sbiw	r26, 0x03	; 3
 1f8:	40 81       	ld	r20, Z
 1fa:	21 e0       	ldi	r18, 0x01	; 1
 1fc:	30 e0       	ldi	r19, 0x00	; 0
 1fe:	c9 01       	movw	r24, r18
 200:	16 96       	adiw	r26, 0x06	; 6
 202:	0c 90       	ld	r0, X
 204:	02 c0       	rjmp	.+4      	; 0x20a <_Z6PinOuthh+0x5a>
 206:	88 0f       	add	r24, r24
 208:	99 1f       	adc	r25, r25
 20a:	0a 94       	dec	r0
 20c:	e2 f7       	brpl	.-8      	; 0x206 <_Z6PinOuthh+0x56>
 20e:	80 95       	com	r24
 210:	84 23       	and	r24, r20
 212:	80 83       	st	Z, r24
 214:	08 95       	ret

00000216 <_Z5Servo9ServoName11ServoAction>:
};

struct ActiveChann_TypeDef ActiveChann = {{0, 0, 0, 0, 0, 0, 0, 0}, 0, NUM_SERVO + 1};
	
void Servo(enum ServoName s, enum ServoAction a){
	switch(a){
 216:	61 30       	cpi	r22, 0x01	; 1
 218:	e9 f0       	breq	.+58     	; 0x254 <_Z5Servo9ServoName11ServoAction+0x3e>
 21a:	18 f0       	brcs	.+6      	; 0x222 <_Z5Servo9ServoName11ServoAction+0xc>
 21c:	62 30       	cpi	r22, 0x02	; 2
 21e:	e1 f0       	breq	.+56     	; 0x258 <_Z5Servo9ServoName11ServoAction+0x42>
 220:	08 95       	ret
	case Init:
		// Set proper pins as outputs
		*pinTab[(u8)s].DDR |= 1 << pinTab[(u8)s].p;
 222:	97 e0       	ldi	r25, 0x07	; 7
 224:	89 9f       	mul	r24, r25
 226:	d0 01       	movw	r26, r0
 228:	11 24       	eor	r1, r1
 22a:	a6 5e       	subi	r26, 0xE6	; 230
 22c:	be 4f       	sbci	r27, 0xFE	; 254
 22e:	ed 91       	ld	r30, X+
 230:	fc 91       	ld	r31, X
 232:	11 97       	sbiw	r26, 0x01	; 1
 234:	90 81       	ld	r25, Z
 236:	41 e0       	ldi	r20, 0x01	; 1
 238:	50 e0       	ldi	r21, 0x00	; 0
 23a:	9a 01       	movw	r18, r20
 23c:	16 96       	adiw	r26, 0x06	; 6
 23e:	0c 90       	ld	r0, X
 240:	02 c0       	rjmp	.+4      	; 0x246 <_Z5Servo9ServoName11ServoAction+0x30>
 242:	22 0f       	add	r18, r18
 244:	33 1f       	adc	r19, r19
 246:	0a 94       	dec	r0
 248:	e2 f7       	brpl	.-8      	; 0x242 <_Z5Servo9ServoName11ServoAction+0x2c>
 24a:	29 2b       	or	r18, r25
 24c:	20 83       	st	Z, r18
		PinOut((u8)s, LOW);
 24e:	60 e0       	ldi	r22, 0x00	; 0
 250:	af cf       	rjmp	.-162    	; 0x1b0 <_Z6PinOuthh>
		break;
 252:	08 95       	ret
	case EnablePWM:
		PWM_AddChannel((u8)s);
 254:	39 cf       	rjmp	.-398    	; 0xc8 <_Z14PWM_AddChannelh>
	    break;
 256:	08 95       	ret
	case DisablePWM:
		PWM_DeleteChannel((u8)s);
 258:	7f cf       	rjmp	.-258    	; 0x158 <_Z17PWM_DeleteChannelh>
 25a:	08 95       	ret

0000025c <_Z18ATmega8_16bitTimerv>:
			}
		}
		_delay_ms(1);
	}
	return 0;
}
 25c:	8f ed       	ldi	r24, 0xDF	; 223
 25e:	91 eb       	ldi	r25, 0xB1	; 177
 260:	9d bd       	out	0x2d, r25	; 45
 262:	8c bd       	out	0x2c, r24	; 44
 264:	82 e0       	ldi	r24, 0x02	; 2
 266:	8e bd       	out	0x2e, r24	; 46
 268:	87 b7       	in	r24, 0x37	; 55
 26a:	84 60       	ori	r24, 0x04	; 4
 26c:	87 bf       	out	0x37, r24	; 55
 26e:	08 95       	ret

00000270 <__vector_14>:
 270:	1f 92       	push	r1
 272:	0f 92       	push	r0
 274:	0f b6       	in	r0, 0x3f	; 63
 276:	0f 92       	push	r0
 278:	11 24       	eor	r1, r1
 27a:	0b b6       	in	r0, 0x3b	; 59
 27c:	0f 92       	push	r0
 27e:	1f 93       	push	r17
 280:	2f 93       	push	r18
 282:	3f 93       	push	r19
 284:	4f 93       	push	r20
 286:	5f 93       	push	r21
 288:	6f 93       	push	r22
 28a:	7f 93       	push	r23
 28c:	8f 93       	push	r24
 28e:	9f 93       	push	r25
 290:	af 93       	push	r26
 292:	bf 93       	push	r27
 294:	cf 93       	push	r28
 296:	df 93       	push	r29
 298:	ef 93       	push	r30
 29a:	ff 93       	push	r31
 29c:	80 91 08 01 	lds	r24, 0x0108
 2a0:	88 23       	and	r24, r24
 2a2:	09 f4       	brne	.+2      	; 0x2a6 <__vector_14+0x36>
 2a4:	70 c0       	rjmp	.+224    	; 0x386 <__vector_14+0x116>
 2a6:	e0 91 09 01 	lds	r30, 0x0109
 2aa:	e9 30       	cpi	r30, 0x09	; 9
 2ac:	11 f5       	brne	.+68     	; 0x2f2 <__vector_14+0x82>
 2ae:	10 92 52 01 	sts	0x0152, r1
 2b2:	88 23       	and	r24, r24
 2b4:	71 f0       	breq	.+28     	; 0x2d2 <__vector_14+0x62>
 2b6:	10 e0       	ldi	r17, 0x00	; 0
 2b8:	c8 e0       	ldi	r28, 0x08	; 8
 2ba:	d1 e0       	ldi	r29, 0x01	; 1
 2bc:	e1 2f       	mov	r30, r17
 2be:	f0 e0       	ldi	r31, 0x00	; 0
 2c0:	e0 50       	subi	r30, 0x00	; 0
 2c2:	ff 4f       	sbci	r31, 0xFF	; 255
 2c4:	61 e0       	ldi	r22, 0x01	; 1
 2c6:	80 81       	ld	r24, Z
 2c8:	73 df       	rcall	.-282    	; 0x1b0 <_Z6PinOuthh>
 2ca:	1f 5f       	subi	r17, 0xFF	; 255
 2cc:	88 81       	ld	r24, Y
 2ce:	18 17       	cp	r17, r24
 2d0:	a8 f3       	brcs	.-22     	; 0x2bc <__vector_14+0x4c>
 2d2:	10 92 09 01 	sts	0x0109, r1
 2d6:	e0 91 00 01 	lds	r30, 0x0100
 2da:	f0 e0       	ldi	r31, 0x00	; 0
 2dc:	ee 0f       	add	r30, r30
 2de:	ff 1f       	adc	r31, r31
 2e0:	e6 5f       	subi	r30, 0xF6	; 246
 2e2:	fe 4f       	sbci	r31, 0xFE	; 254
 2e4:	80 81       	ld	r24, Z
 2e6:	91 81       	ldd	r25, Z+1	; 0x01
 2e8:	80 95       	com	r24
 2ea:	90 95       	com	r25
 2ec:	9d bd       	out	0x2d, r25	; 45
 2ee:	8c bd       	out	0x2c, r24	; 44
 2f0:	4e c0       	rjmp	.+156    	; 0x38e <__vector_14+0x11e>
 2f2:	f0 e0       	ldi	r31, 0x00	; 0
 2f4:	e0 50       	subi	r30, 0x00	; 0
 2f6:	ff 4f       	sbci	r31, 0xFF	; 255
 2f8:	60 e0       	ldi	r22, 0x00	; 0
 2fa:	80 81       	ld	r24, Z
 2fc:	59 df       	rcall	.-334    	; 0x1b0 <_Z6PinOuthh>
 2fe:	80 91 09 01 	lds	r24, 0x0109
 302:	90 e0       	ldi	r25, 0x00	; 0
 304:	20 91 08 01 	lds	r18, 0x0108
 308:	30 e0       	ldi	r19, 0x00	; 0
 30a:	21 50       	subi	r18, 0x01	; 1
 30c:	31 09       	sbc	r19, r1
 30e:	82 17       	cp	r24, r18
 310:	93 07       	cpc	r25, r19
 312:	fc f4       	brge	.+62     	; 0x352 <__vector_14+0xe2>
 314:	fc 01       	movw	r30, r24
 316:	e0 50       	subi	r30, 0x00	; 0
 318:	ff 4f       	sbci	r31, 0xFF	; 255
 31a:	a1 81       	ldd	r26, Z+1	; 0x01
 31c:	b0 e0       	ldi	r27, 0x00	; 0
 31e:	aa 0f       	add	r26, r26
 320:	bb 1f       	adc	r27, r27
 322:	a6 5f       	subi	r26, 0xF6	; 246
 324:	be 4f       	sbci	r27, 0xFE	; 254
 326:	e0 81       	ld	r30, Z
 328:	f0 e0       	ldi	r31, 0x00	; 0
 32a:	ee 0f       	add	r30, r30
 32c:	ff 1f       	adc	r31, r31
 32e:	e6 5f       	subi	r30, 0xF6	; 246
 330:	fe 4f       	sbci	r31, 0xFE	; 254
 332:	8d 91       	ld	r24, X+
 334:	9c 91       	ld	r25, X
 336:	20 81       	ld	r18, Z
 338:	31 81       	ldd	r19, Z+1	; 0x01
 33a:	82 1b       	sub	r24, r18
 33c:	93 0b       	sbc	r25, r19
 33e:	80 95       	com	r24
 340:	90 95       	com	r25
 342:	9d bd       	out	0x2d, r25	; 45
 344:	8c bd       	out	0x2c, r24	; 44
 346:	e9 e0       	ldi	r30, 0x09	; 9
 348:	f1 e0       	ldi	r31, 0x01	; 1
 34a:	80 81       	ld	r24, Z
 34c:	8f 5f       	subi	r24, 0xFF	; 255
 34e:	80 83       	st	Z, r24
 350:	1e c0       	rjmp	.+60     	; 0x38e <__vector_14+0x11e>
 352:	fc 01       	movw	r30, r24
 354:	e0 50       	subi	r30, 0x00	; 0
 356:	ff 4f       	sbci	r31, 0xFF	; 255
 358:	e0 81       	ld	r30, Z
 35a:	f0 e0       	ldi	r31, 0x00	; 0
 35c:	ee 0f       	add	r30, r30
 35e:	ff 1f       	adc	r31, r31
 360:	e6 5f       	subi	r30, 0xF6	; 246
 362:	fe 4f       	sbci	r31, 0xFE	; 254
 364:	20 81       	ld	r18, Z
 366:	31 81       	ldd	r19, Z+1	; 0x01
 368:	80 e2       	ldi	r24, 0x20	; 32
 36a:	9e e4       	ldi	r25, 0x4E	; 78
 36c:	82 1b       	sub	r24, r18
 36e:	93 0b       	sbc	r25, r19
 370:	80 95       	com	r24
 372:	90 95       	com	r25
 374:	9d bd       	out	0x2d, r25	; 45
 376:	8c bd       	out	0x2c, r24	; 44
 378:	89 e0       	ldi	r24, 0x09	; 9
 37a:	80 93 09 01 	sts	0x0109, r24
 37e:	81 e0       	ldi	r24, 0x01	; 1
 380:	80 93 52 01 	sts	0x0152, r24
 384:	04 c0       	rjmp	.+8      	; 0x38e <__vector_14+0x11e>
 386:	8f ed       	ldi	r24, 0xDF	; 223
 388:	91 eb       	ldi	r25, 0xB1	; 177
 38a:	9d bd       	out	0x2d, r25	; 45
 38c:	8c bd       	out	0x2c, r24	; 44
 38e:	ff 91       	pop	r31
 390:	ef 91       	pop	r30
 392:	df 91       	pop	r29
 394:	cf 91       	pop	r28
 396:	bf 91       	pop	r27
 398:	af 91       	pop	r26
 39a:	9f 91       	pop	r25
 39c:	8f 91       	pop	r24
 39e:	7f 91       	pop	r23
 3a0:	6f 91       	pop	r22
 3a2:	5f 91       	pop	r21
 3a4:	4f 91       	pop	r20
 3a6:	3f 91       	pop	r19
 3a8:	2f 91       	pop	r18
 3aa:	1f 91       	pop	r17
 3ac:	0f 90       	pop	r0
 3ae:	0b be       	out	0x3b, r0	; 59
 3b0:	0f 90       	pop	r0
 3b2:	0f be       	out	0x3f, r0	; 63
 3b4:	0f 90       	pop	r0
 3b6:	1f 90       	pop	r1
 3b8:	18 95       	reti

000003ba <main>:

int main(void)
{
	SP = 0xFFF;
 3ba:	8f ef       	ldi	r24, 0xFF	; 255
 3bc:	9f e0       	ldi	r25, 0x0F	; 15
 3be:	9e bf       	out	0x3e, r25	; 62
 3c0:	8d bf       	out	0x3d, r24	; 61
	
	PING &= ~0x07;
 3c2:	e3 e6       	ldi	r30, 0x63	; 99
 3c4:	f0 e0       	ldi	r31, 0x00	; 0
 3c6:	80 81       	ld	r24, Z
 3c8:	88 7f       	andi	r24, 0xF8	; 248
 3ca:	80 83       	st	Z, r24
	
	Servo(CanSat1, Init);
 3cc:	60 e0       	ldi	r22, 0x00	; 0
 3ce:	80 e0       	ldi	r24, 0x00	; 0
 3d0:	22 df       	rcall	.-444    	; 0x216 <_Z5Servo9ServoName11ServoAction>
	Servo(CanSat2, Init);
 3d2:	60 e0       	ldi	r22, 0x00	; 0
 3d4:	81 e0       	ldi	r24, 0x01	; 1
 3d6:	1f df       	rcall	.-450    	; 0x216 <_Z5Servo9ServoName11ServoAction>
	Servo(CanSat3, Init);
 3d8:	60 e0       	ldi	r22, 0x00	; 0
 3da:	82 e0       	ldi	r24, 0x02	; 2
 3dc:	1c df       	rcall	.-456    	; 0x216 <_Z5Servo9ServoName11ServoAction>
	Servo(Parachute, Init);
 3de:	60 e0       	ldi	r22, 0x00	; 0
 3e0:	83 e0       	ldi	r24, 0x03	; 3
 3e2:	19 df       	rcall	.-462    	; 0x216 <_Z5Servo9ServoName11ServoAction>
	Servo(CanSatsHatchLock, Init);
 3e4:	60 e0       	ldi	r22, 0x00	; 0
 3e6:	84 e0       	ldi	r24, 0x04	; 4
 3e8:	16 df       	rcall	.-468    	; 0x216 <_Z5Servo9ServoName11ServoAction>
	Servo(ParachuteHatchLock, Init);
 3ea:	60 e0       	ldi	r22, 0x00	; 0
 3ec:	85 e0       	ldi	r24, 0x05	; 5
 3ee:	13 df       	rcall	.-474    	; 0x216 <_Z5Servo9ServoName11ServoAction>
	Servo(CanSatHatchOpening, Init);
 3f0:	60 e0       	ldi	r22, 0x00	; 0
 3f2:	86 e0       	ldi	r24, 0x06	; 6
 3f4:	10 df       	rcall	.-480    	; 0x216 <_Z5Servo9ServoName11ServoAction>
	Servo(Fins, Init);
 3f6:	60 e0       	ldi	r22, 0x00	; 0
 3f8:	87 e0       	ldi	r24, 0x07	; 7
 3fa:	0d df       	rcall	.-486    	; 0x216 <_Z5Servo9ServoName11ServoAction>
	
	ATmega8_16bitTimer();
 3fc:	2f df       	rcall	.-418    	; 0x25c <_Z18ATmega8_16bitTimerv>
	sei();
 3fe:	78 94       	sei
		pwmDutyTab[acn] = calvar;
		_delay_ms(10);
	}*/
	
	//BUTTONS_INIT; // Init buttons
	Servo(Fins, EnablePWM);
 400:	61 e0       	ldi	r22, 0x01	; 1
 402:	87 e0       	ldi	r24, 0x07	; 7
 404:	08 df       	rcall	.-496    	; 0x216 <_Z5Servo9ServoName11ServoAction>
 406:	ff cf       	rjmp	.-2      	; 0x406 <main+0x4c>

00000408 <_exit>:
 408:	f8 94       	cli

0000040a <__stop_program>:
 40a:	ff cf       	rjmp	.-2      	; 0x40a <__stop_program>
